; ModuleID = 'source-C-CXX/24/1176.cpp'
source_filename = "source-C-CXX/24/1176.cpp"
target datalayout = "e-m:e-p270:32:32-p271:32:32-p272:64:64-i64:64-f80:128-n8:16:32:64-S128"
target triple = "x86_64-pc-linux-gnu"

%"class.std::ios_base::Init" = type { i8 }
%"class.std::basic_istream" = type { i32 (...)**, i64, %"class.std::basic_ios" }
%"class.std::basic_ios" = type { %"class.std::ios_base", %"class.std::basic_ostream"*, i8, i8, %"class.std::basic_streambuf"*, %"class.std::ctype"*, %"class.std::num_put"*, %"class.std::num_get"* }
%"class.std::ios_base" = type { i32 (...)**, i64, i64, i32, i32, i32, %"struct.std::ios_base::_Callback_list"*, %"struct.std::ios_base::_Words", [8 x %"struct.std::ios_base::_Words"], i32, %"struct.std::ios_base::_Words"*, %"class.std::locale" }
%"struct.std::ios_base::_Callback_list" = type { %"struct.std::ios_base::_Callback_list"*, void (i32, %"class.std::ios_base"*, i32)*, i32, i32 }
%"struct.std::ios_base::_Words" = type { i8*, i64 }
%"class.std::locale" = type { %"class.std::locale::_Impl"* }
%"class.std::locale::_Impl" = type { i32, %"class.std::locale::facet"**, i64, %"class.std::locale::facet"**, i8** }
%"class.std::locale::facet" = type <{ i32 (...)**, i32, [4 x i8] }>
%"class.std::basic_ostream" = type { i32 (...)**, %"class.std::basic_ios" }
%"class.std::basic_streambuf" = type { i32 (...)**, i8*, i8*, i8*, i8*, i8*, i8*, %"class.std::locale" }
%"class.std::ctype" = type <{ %"class.std::locale::facet.base", [4 x i8], %struct.__locale_struct*, i8, [7 x i8], i32*, i32*, i16*, i8, [256 x i8], [256 x i8], i8, [6 x i8] }>
%"class.std::locale::facet.base" = type <{ i32 (...)**, i32 }>
%struct.__locale_struct = type { [13 x %struct.__locale_data*], i16*, i32*, i32*, [13 x i8*] }
%struct.__locale_data = type opaque
%"class.std::num_put" = type { %"class.std::locale::facet.base", [4 x i8] }
%"class.std::num_get" = type { %"class.std::locale::facet.base", [4 x i8] }

@_ZStL8__ioinit = internal global %"class.std::ios_base::Init" zeroinitializer, align 1
@__dso_handle = external hidden global i8
@_ZSt3cin = external global %"class.std::basic_istream", align 8
@_ZSt4cout = external global %"class.std::basic_ostream", align 8
@llvm.global_ctors = appending global [1 x { i32, void ()*, i8* }] [{ i32, void ()*, i8* } { i32 65535, void ()* @_GLOBAL__sub_I_1176.cpp, i8* null }]

declare void @_ZNSt8ios_base4InitC1Ev(%"class.std::ios_base::Init"* nonnull align 1 dereferenceable(1)) unnamed_addr #0

; Function Attrs: nounwind
declare void @_ZNSt8ios_base4InitD1Ev(%"class.std::ios_base::Init"* nonnull align 1 dereferenceable(1)) unnamed_addr #1

; Function Attrs: nofree nounwind
declare i32 @__cxa_atexit(void (i8*)*, i8*, i8*) local_unnamed_addr #2

; Function Attrs: mustprogress norecurse sspstrong uwtable
define dso_local i32 @main() local_unnamed_addr #3 {
  %1 = alloca i32, align 4
  %2 = alloca [50 x i32], align 16
  %3 = bitcast i32* %1 to i8*
  call void @llvm.lifetime.start.p0i8(i64 4, i8* nonnull %3) #8
  %4 = call nonnull align 8 dereferenceable(16) %"class.std::basic_istream"* @_ZNSirsERi(%"class.std::basic_istream"* nonnull align 8 dereferenceable(16) @_ZSt3cin, i32* nonnull align 4 dereferenceable(4) %1)
  %5 = bitcast [50 x i32]* %2 to i8*
  call void @llvm.lifetime.start.p0i8(i64 200, i8* nonnull %5) #8
  call void @llvm.memset.p0i8.i64(i8* noundef nonnull align 16 dereferenceable(200) %5, i8 0, i64 200, i1 false)
  %6 = getelementptr inbounds [50 x i32], [50 x i32]* %2, i64 0, i64 1
  store i32 2, i32* %6, align 4, !tbaa !5
  %7 = load i32, i32* %1, align 4, !tbaa !5
  %8 = icmp sgt i32 %7, 1
  br i1 %8, label %9, label %45

9:                                                ; preds = %0
  %10 = getelementptr inbounds [50 x i32], [50 x i32]* %2, i64 0, i64 0
  br label %11

11:                                               ; preds = %9, %42
  %12 = phi i32 [ %43, %42 ], [ 1, %9 ]
  br label %13

13:                                               ; preds = %13, %11
  %14 = phi i64 [ %18, %13 ], [ 49, %11 ]
  %15 = getelementptr inbounds [50 x i32], [50 x i32]* %2, i64 0, i64 %14
  %16 = load i32, i32* %15, align 4, !tbaa !5
  %17 = icmp eq i32 %16, 0
  %18 = add i64 %14, -1
  br i1 %17, label %13, label %19, !llvm.loop !9

19:                                               ; preds = %13
  %20 = trunc i64 %14 to i32
  %21 = icmp slt i32 %20, 0
  br i1 %21, label %42, label %22

22:                                               ; preds = %19
  %23 = add i64 %14, 2
  %24 = and i64 %23, 4294967295
  %25 = load i32, i32* %10, align 16, !tbaa !5
  br label %26

26:                                               ; preds = %22, %38
  %27 = phi i32 [ %25, %22 ], [ %39, %38 ]
  %28 = phi i64 [ 1, %22 ], [ %40, %38 ]
  %29 = getelementptr inbounds [50 x i32], [50 x i32]* %2, i64 0, i64 %28
  %30 = load i32, i32* %29, align 4, !tbaa !5
  %31 = shl nsw i32 %30, 1
  store i32 %31, i32* %29, align 4, !tbaa !5
  %32 = icmp sgt i32 %27, 9
  br i1 %32, label %33, label %38

33:                                               ; preds = %26
  %34 = add nsw i64 %28, -1
  %35 = getelementptr inbounds [50 x i32], [50 x i32]* %2, i64 0, i64 %34
  %36 = add nsw i32 %27, -10
  store i32 %36, i32* %35, align 4, !tbaa !5
  %37 = or i32 %31, 1
  store i32 %37, i32* %29, align 4, !tbaa !5
  br label %38

38:                                               ; preds = %26, %33
  %39 = phi i32 [ %31, %26 ], [ %37, %33 ]
  %40 = add nuw nsw i64 %28, 1
  %41 = icmp eq i64 %40, %24
  br i1 %41, label %42, label %26, !llvm.loop !11

42:                                               ; preds = %38, %19
  %43 = add nuw nsw i32 %12, 1
  %44 = icmp eq i32 %43, %7
  br i1 %44, label %45, label %11, !llvm.loop !12

45:                                               ; preds = %42, %0
  %46 = icmp eq i32 %7, 0
  br i1 %46, label %47, label %77

47:                                               ; preds = %45
  %48 = call nonnull align 8 dereferenceable(8) %"class.std::basic_ostream"* @_ZNSolsEi(%"class.std::basic_ostream"* nonnull align 8 dereferenceable(8) @_ZSt4cout, i32 1)
  %49 = bitcast %"class.std::basic_ostream"* %48 to i8**
  %50 = load i8*, i8** %49, align 8, !tbaa !13
  %51 = getelementptr i8, i8* %50, i64 -24
  %52 = bitcast i8* %51 to i64*
  %53 = load i64, i64* %52, align 8
  %54 = bitcast %"class.std::basic_ostream"* %48 to i8*
  %55 = add nsw i64 %53, 240
  %56 = getelementptr inbounds i8, i8* %54, i64 %55
  %57 = bitcast i8* %56 to %"class.std::ctype"**
  %58 = load %"class.std::ctype"*, %"class.std::ctype"** %57, align 8, !tbaa !15
  %59 = icmp eq %"class.std::ctype"* %58, null
  br i1 %59, label %60, label %61

60:                                               ; preds = %47
  call void @_ZSt16__throw_bad_castv() #9
  unreachable

61:                                               ; preds = %47
  %62 = getelementptr inbounds %"class.std::ctype", %"class.std::ctype"* %58, i64 0, i32 8
  %63 = load i8, i8* %62, align 8, !tbaa !19
  %64 = icmp eq i8 %63, 0
  br i1 %64, label %68, label %65

65:                                               ; preds = %61
  %66 = getelementptr inbounds %"class.std::ctype", %"class.std::ctype"* %58, i64 0, i32 9, i64 10
  %67 = load i8, i8* %66, align 1, !tbaa !21
  br label %74

68:                                               ; preds = %61
  call void @_ZNKSt5ctypeIcE13_M_widen_initEv(%"class.std::ctype"* nonnull align 8 dereferenceable(570) %58)
  %69 = bitcast %"class.std::ctype"* %58 to i8 (%"class.std::ctype"*, i8)***
  %70 = load i8 (%"class.std::ctype"*, i8)**, i8 (%"class.std::ctype"*, i8)*** %69, align 8, !tbaa !13
  %71 = getelementptr inbounds i8 (%"class.std::ctype"*, i8)*, i8 (%"class.std::ctype"*, i8)** %70, i64 6
  %72 = load i8 (%"class.std::ctype"*, i8)*, i8 (%"class.std::ctype"*, i8)** %71, align 8
  %73 = call signext i8 %72(%"class.std::ctype"* nonnull align 8 dereferenceable(570) %58, i8 signext 10)
  br label %74

74:                                               ; preds = %65, %68
  %75 = phi i8 [ %67, %65 ], [ %73, %68 ]
  %76 = call nonnull align 8 dereferenceable(8) %"class.std::basic_ostream"* @_ZNSo3putEc(%"class.std::basic_ostream"* nonnull align 8 dereferenceable(8) %48, i8 signext %75)
  br label %122

77:                                               ; preds = %45, %77
  %78 = phi i64 [ %82, %77 ], [ 49, %45 ]
  %79 = getelementptr inbounds [50 x i32], [50 x i32]* %2, i64 0, i64 %78
  %80 = load i32, i32* %79, align 4, !tbaa !5
  %81 = icmp eq i32 %80, 0
  %82 = add i64 %78, -1
  br i1 %81, label %77, label %83, !llvm.loop !22

83:                                               ; preds = %77
  %84 = trunc i64 %78 to i32
  %85 = icmp sgt i32 %84, 0
  br i1 %85, label %86, label %95

86:                                               ; preds = %83
  %87 = and i64 %78, 4294967295
  br label %88

88:                                               ; preds = %86, %88
  %89 = phi i64 [ %87, %86 ], [ %94, %88 ]
  %90 = getelementptr inbounds [50 x i32], [50 x i32]* %2, i64 0, i64 %89
  %91 = load i32, i32* %90, align 4, !tbaa !5
  %92 = call nonnull align 8 dereferenceable(8) %"class.std::basic_ostream"* @_ZNSolsEi(%"class.std::basic_ostream"* nonnull align 8 dereferenceable(8) @_ZSt4cout, i32 %91)
  %93 = icmp sgt i64 %89, 1
  %94 = add nsw i64 %89, -1
  br i1 %93, label %88, label %95, !llvm.loop !23

95:                                               ; preds = %88, %83
  %96 = load i8*, i8** bitcast (%"class.std::basic_ostream"* @_ZSt4cout to i8**), align 8, !tbaa !13
  %97 = getelementptr i8, i8* %96, i64 -24
  %98 = bitcast i8* %97 to i64*
  %99 = load i64, i64* %98, align 8
  %100 = add nsw i64 %99, 240
  %101 = getelementptr inbounds i8, i8* bitcast (%"class.std::basic_ostream"* @_ZSt4cout to i8*), i64 %100
  %102 = bitcast i8* %101 to %"class.std::ctype"**
  %103 = load %"class.std::ctype"*, %"class.std::ctype"** %102, align 8, !tbaa !15
  %104 = icmp eq %"class.std::ctype"* %103, null
  br i1 %104, label %105, label %106

105:                                              ; preds = %95
  call void @_ZSt16__throw_bad_castv() #9
  unreachable

106:                                              ; preds = %95
  %107 = getelementptr inbounds %"class.std::ctype", %"class.std::ctype"* %103, i64 0, i32 8
  %108 = load i8, i8* %107, align 8, !tbaa !19
  %109 = icmp eq i8 %108, 0
  br i1 %109, label %113, label %110

110:                                              ; preds = %106
  %111 = getelementptr inbounds %"class.std::ctype", %"class.std::ctype"* %103, i64 0, i32 9, i64 10
  %112 = load i8, i8* %111, align 1, !tbaa !21
  br label %119

113:                                              ; preds = %106
  call void @_ZNKSt5ctypeIcE13_M_widen_initEv(%"class.std::ctype"* nonnull align 8 dereferenceable(570) %103)
  %114 = bitcast %"class.std::ctype"* %103 to i8 (%"class.std::ctype"*, i8)***
  %115 = load i8 (%"class.std::ctype"*, i8)**, i8 (%"class.std::ctype"*, i8)*** %114, align 8, !tbaa !13
  %116 = getelementptr inbounds i8 (%"class.std::ctype"*, i8)*, i8 (%"class.std::ctype"*, i8)** %115, i64 6
  %117 = load i8 (%"class.std::ctype"*, i8)*, i8 (%"class.std::ctype"*, i8)** %116, align 8
  %118 = call signext i8 %117(%"class.std::ctype"* nonnull align 8 dereferenceable(570) %103, i8 signext 10)
  br label %119

119:                                              ; preds = %110, %113
  %120 = phi i8 [ %112, %110 ], [ %118, %113 ]
  %121 = call nonnull align 8 dereferenceable(8) %"class.std::basic_ostream"* @_ZNSo3putEc(%"class.std::basic_ostream"* nonnull align 8 dereferenceable(8) @_ZSt4cout, i8 signext %120)
  br label %122

122:                                              ; preds = %119, %74
  %123 = phi %"class.std::basic_ostream"* [ %121, %119 ], [ %76, %74 ]
  %124 = call nonnull align 8 dereferenceable(8) %"class.std::basic_ostream"* @_ZNSo5flushEv(%"class.std::basic_ostream"* nonnull align 8 dereferenceable(8) %123)
  call void @llvm.lifetime.end.p0i8(i64 200, i8* nonnull %5) #8
  call void @llvm.lifetime.end.p0i8(i64 4, i8* nonnull %3) #8
  ret i32 0
}

; Function Attrs: argmemonly mustprogress nofree nosync nounwind willreturn
declare void @llvm.lifetime.start.p0i8(i64 immarg, i8* nocapture) #4

declare nonnull align 8 dereferenceable(16) %"class.std::basic_istream"* @_ZNSirsERi(%"class.std::basic_istream"* nonnull align 8 dereferenceable(16), i32* nonnull align 4 dereferenceable(4)) local_unnamed_addr #0

; Function Attrs: argmemonly mustprogress nofree nounwind willreturn writeonly
declare void @llvm.memset.p0i8.i64(i8* nocapture writeonly, i8, i64, i1 immarg) #5

declare nonnull align 8 dereferenceable(8) %"class.std::basic_ostream"* @_ZNSolsEi(%"class.std::basic_ostream"* nonnull align 8 dereferenceable(8), i32) local_unnamed_addr #0

; Function Attrs: argmemonly mustprogress nofree nosync nounwind willreturn
declare void @llvm.lifetime.end.p0i8(i64 immarg, i8* nocapture) #4

declare nonnull align 8 dereferenceable(8) %"class.std::basic_ostream"* @_ZNSo3putEc(%"class.std::basic_ostream"* nonnull align 8 dereferenceable(8), i8 signext) local_unnamed_addr #0

declare nonnull align 8 dereferenceable(8) %"class.std::basic_ostream"* @_ZNSo5flushEv(%"class.std::basic_ostream"* nonnull align 8 dereferenceable(8)) local_unnamed_addr #0

; Function Attrs: noreturn
declare void @_ZSt16__throw_bad_castv() local_unnamed_addr #6

declare void @_ZNKSt5ctypeIcE13_M_widen_initEv(%"class.std::ctype"* nonnull align 8 dereferenceable(570)) local_unnamed_addr #0

; Function Attrs: sspstrong uwtable
define internal void @_GLOBAL__sub_I_1176.cpp() #7 section ".text.startup" {
  tail call void @_ZNSt8ios_base4InitC1Ev(%"class.std::ios_base::Init"* nonnull align 1 dereferenceable(1) @_ZStL8__ioinit)
  %1 = tail call i32 @__cxa_atexit(void (i8*)* bitcast (void (%"class.std::ios_base::Init"*)* @_ZNSt8ios_base4InitD1Ev to void (i8*)*), i8* getelementptr inbounds (%"class.std::ios_base::Init", %"class.std::ios_base::Init"* @_ZStL8__ioinit, i64 0, i32 0), i8* nonnull @__dso_handle) #8
  ret void
}


!llvm.module.flags = !{!0, !1, !2, !3}
!llvm.ident = !{!4}

!0 = !{i32 1, !"wchar_size", i32 4}
!1 = !{i32 7, !"PIC Level", i32 2}
!2 = !{i32 7, !"PIE Level", i32 2}
!3 = !{i32 7, !"uwtable", i32 1}
!4 = !{!"clang version 13.0.0"}
!5 = !{!6, !6, i64 0}
!6 = !{!"int", !7, i64 0}
!7 = !{!"omnipotent char", !8, i64 0}
!8 = !{!"Simple C++ TBAA"}
!9 = distinct !{!9, !10}
!10 = !{!"llvm.loop.mustprogress"}
!11 = distinct !{!11, !10}
!12 = distinct !{!12, !10}
!13 = !{!14, !14, i64 0}
!14 = !{!"vtable pointer", !8, i64 0}
!15 = !{!16, !17, i64 240}
!16 = !{!"_ZTSSt9basic_iosIcSt11char_traitsIcEE", !17, i64 216, !7, i64 224, !18, i64 225, !17, i64 232, !17, i64 240, !17, i64 248, !17, i64 256}
!17 = !{!"any pointer", !7, i64 0}
!18 = !{!"bool", !7, i64 0}
!19 = !{!20, !7, i64 56}
!20 = !{!"_ZTSSt5ctypeIcE", !17, i64 16, !18, i64 24, !17, i64 32, !17, i64 40, !17, i64 48, !7, i64 56, !7, i64 57, !7, i64 313, !7, i64 569}
!21 = !{!7, !7, i64 0}
!22 = distinct !{!22, !10}
!23 = distinct !{!23, !10}
